target datalayout = "e-m:e-p270:32:32-p271:32:32-p272:64:64-i64:64-i128:128-f80:128-n8:16:32:64-S128"
target triple = "x86_64-pc-linux-gnu"

%struct.archive_digest = type { ptr, ptr, ptr, ptr, ptr, ptr, ptr, ptr, ptr, ptr, ptr, ptr, ptr, ptr, ptr, ptr, ptr, ptr }
%struct.archive_write = type { %struct.archive, i32, i64, i64, ptr, i64, ptr, ptr, ptr, ptr, ptr, i32, i32, ptr, ptr, ptr, ptr, ptr, ptr, ptr, ptr, ptr, ptr, ptr, ptr, ptr, ptr }
%struct.archive = type { i32, i32, ptr, i32, ptr, i32, i32, ptr, %struct.archive_string, ptr, i32, i32, ptr, ptr, i64, i64, i64, i8, i64 }
%struct.archive_string = type { ptr, i64, i64 }
%struct.mtree_writer = type { ptr, ptr, ptr, %struct.archive_string, %struct.mtree_chain, %struct.archive_string, %struct.archive_string, i32, i64, %struct.anon, %struct.att_counter_set, i32, i32, i32, i32, i64, ptr, ptr, ptr, ptr, ptr, ptr, i32, i32, i32, i32 }
%struct.mtree_chain = type { ptr, ptr }
%struct.anon = type { i32, i32, i32, i64, i64, i32, i64, i64 }
%struct.att_counter_set = type { ptr, ptr, ptr, ptr }
%struct.mtree_entry = type { %struct.archive_rb_node, ptr, ptr, ptr, ptr, %struct.archive_string, %struct.archive_string, %struct.archive_string, %struct.archive_string, %struct.archive_string, %struct.archive_string, %struct.archive_string, i32, i32, i32, i64, i64, i64, i64, i64, i64, i64, i64, i64, i64, i64, i64 }
%struct.archive_rb_node = type { [2 x ptr], i64 }

@__archive_digest = external constant %struct.archive_digest, align 8

; Function Attrs: nounwind uwtable
define internal void @sum_update(ptr noundef %0, ptr noundef %1, i64 noundef %2) #0 {
  %4 = alloca ptr, align 8
  %5 = alloca ptr, align 8
  %6 = alloca i64, align 8
  %7 = alloca ptr, align 8
  %8 = alloca i64, align 8
  store ptr %0, ptr %4, align 8, !tbaa !23
  store ptr %1, ptr %5, align 8, !tbaa !68
  store i64 %2, ptr %6, align 8, !tbaa !69
  %9 = load ptr, ptr %4, align 8, !tbaa !23
  %10 = getelementptr inbounds nuw %struct.mtree_writer, ptr %9, i32 0, i32 13
  %11 = load i32, ptr %10, align 8, !tbaa !124
  %12 = and i32 %11, 1
  %13 = icmp ne i32 %12, 0
  br i1 %13, label %14, label %49

14:                                               ; preds = %3
  call void @llvm.lifetime.start.p0(i64 8, ptr %7) #9
  call void @llvm.lifetime.start.p0(i64 8, ptr %8) #9
  %15 = load i64, ptr %6, align 8, !tbaa !69
  store i64 %15, ptr %8, align 8, !tbaa !69
  %16 = load ptr, ptr %5, align 8, !tbaa !68
  store ptr %16, ptr %7, align 8, !tbaa !9
  br label %17

17:                                               ; preds = %40, %14
  %18 = load i64, ptr %8, align 8, !tbaa !69
  %19 = add i64 %18, -1
  store i64 %19, ptr %8, align 8, !tbaa !69
  %20 = icmp ne i64 %18, 0
  br i1 %20, label %21, label %43

21:                                               ; preds = %17
  %22 = load ptr, ptr %4, align 8, !tbaa !23
  %23 = getelementptr inbounds nuw %struct.mtree_writer, ptr %22, i32 0, i32 14
  %24 = load i32, ptr %23, align 4, !tbaa !125
  %25 = shl i32 %24, 8
  %26 = load ptr, ptr %4, align 8, !tbaa !23
  %27 = getelementptr inbounds nuw %struct.mtree_writer, ptr %26, i32 0, i32 14
  %28 = load i32, ptr %27, align 4, !tbaa !125
  %29 = lshr i32 %28, 24
  %30 = load ptr, ptr %7, align 8, !tbaa !9
  %31 = load i8, ptr %30, align 1, !tbaa !57
  %32 = zext i8 %31 to i32
  %33 = xor i32 %29, %32
  %34 = zext i32 %33 to i64
  %35 = getelementptr inbounds nuw [256 x i32], ptr @crctab, i64 0, i64 %34
  %36 = load i32, ptr %35, align 4, !tbaa !13
  %37 = xor i32 %25, %36
  %38 = load ptr, ptr %4, align 8, !tbaa !23
  %39 = getelementptr inbounds nuw %struct.mtree_writer, ptr %38, i32 0, i32 14
  store i32 %37, ptr %39, align 4, !tbaa !125
  br label %40

40:                                               ; preds = %21
  %41 = load ptr, ptr %7, align 8, !tbaa !9
  %42 = getelementptr inbounds nuw i8, ptr %41, i32 1
  store ptr %42, ptr %7, align 8, !tbaa !9
  br label %17, !llvm.loop !187

43:                                               ; preds = %17
  %44 = load i64, ptr %6, align 8, !tbaa !69
  %45 = load ptr, ptr %4, align 8, !tbaa !23
  %46 = getelementptr inbounds nuw %struct.mtree_writer, ptr %45, i32 0, i32 15
  %47 = load i64, ptr %46, align 8, !tbaa !126
  %48 = add i64 %47, %44
  store i64 %48, ptr %46, align 8, !tbaa !126
  call void @llvm.lifetime.end.p0(i64 8, ptr %8) #9
  call void @llvm.lifetime.end.p0(i64 8, ptr %7) #9
  br label %49

49:                                               ; preds = %43, %3
  %50 = load ptr, ptr %4, align 8, !tbaa !23
  %51 = getelementptr inbounds nuw %struct.mtree_writer, ptr %50, i32 0, i32 13
  %52 = load i32, ptr %51, align 8, !tbaa !124
  %53 = and i32 %52, 256
  %54 = icmp ne i32 %53, 0
  br i1 %54, label %55, label %62

55:                                               ; preds = %49
  %56 = load ptr, ptr getelementptr inbounds nuw (%struct.archive_digest, ptr @__archive_digest, i32 0, i32 1), align 8, !tbaa !188
  %57 = load ptr, ptr %4, align 8, !tbaa !23
  %58 = getelementptr inbounds nuw %struct.mtree_writer, ptr %57, i32 0, i32 16
  %59 = load ptr, ptr %5, align 8, !tbaa !68
  %60 = load i64, ptr %6, align 8, !tbaa !69
  %61 = call i32 %56(ptr noundef %58, ptr noundef %59, i64 noundef %60)
  br label %62

62:                                               ; preds = %55, %49
  %63 = load ptr, ptr %4, align 8, !tbaa !23
  %64 = getelementptr inbounds nuw %struct.mtree_writer, ptr %63, i32 0, i32 13
  %65 = load i32, ptr %64, align 8, !tbaa !124
  %66 = and i32 %65, 8192
  %67 = icmp ne i32 %66, 0
  br i1 %67, label %68, label %75

68:                                               ; preds = %62
  %69 = load ptr, ptr getelementptr inbounds nuw (%struct.archive_digest, ptr @__archive_digest, i32 0, i32 4), align 8, !tbaa !189
  %70 = load ptr, ptr %4, align 8, !tbaa !23
  %71 = getelementptr inbounds nuw %struct.mtree_writer, ptr %70, i32 0, i32 17
  %72 = load ptr, ptr %5, align 8, !tbaa !68
  %73 = load i64, ptr %6, align 8, !tbaa !69
  %74 = call i32 %69(ptr noundef %71, ptr noundef %72, i64 noundef %73)
  br label %75

75:                                               ; preds = %68, %62
  %76 = load ptr, ptr %4, align 8, !tbaa !23
  %77 = getelementptr inbounds nuw %struct.mtree_writer, ptr %76, i32 0, i32 13
  %78 = load i32, ptr %77, align 8, !tbaa !124
  %79 = and i32 %78, 16384
  %80 = icmp ne i32 %79, 0
  br i1 %80, label %81, label %88

81:                                               ; preds = %75
  %82 = load ptr, ptr getelementptr inbounds nuw (%struct.archive_digest, ptr @__archive_digest, i32 0, i32 7), align 8, !tbaa !190
  %83 = load ptr, ptr %4, align 8, !tbaa !23
  %84 = getelementptr inbounds nuw %struct.mtree_writer, ptr %83, i32 0, i32 18
  %85 = load ptr, ptr %5, align 8, !tbaa !68
  %86 = load i64, ptr %6, align 8, !tbaa !69
  %87 = call i32 %82(ptr noundef %84, ptr noundef %85, i64 noundef %86)
  br label %88

88:                                               ; preds = %81, %75
  %89 = load ptr, ptr %4, align 8, !tbaa !23
  %90 = getelementptr inbounds nuw %struct.mtree_writer, ptr %89, i32 0, i32 13
  %91 = load i32, ptr %90, align 8, !tbaa !124
  %92 = and i32 %91, 8388608
  %93 = icmp ne i32 %92, 0
  br i1 %93, label %94, label %101

94:                                               ; preds = %88
  %95 = load ptr, ptr getelementptr inbounds nuw (%struct.archive_digest, ptr @__archive_digest, i32 0, i32 10), align 8, !tbaa !191
  %96 = load ptr, ptr %4, align 8, !tbaa !23
  %97 = getelementptr inbounds nuw %struct.mtree_writer, ptr %96, i32 0, i32 19
  %98 = load ptr, ptr %5, align 8, !tbaa !68
  %99 = load i64, ptr %6, align 8, !tbaa !69
  %100 = call i32 %95(ptr noundef %97, ptr noundef %98, i64 noundef %99)
  br label %101

101:                                              ; preds = %94, %88
  %102 = load ptr, ptr %4, align 8, !tbaa !23
  %103 = getelementptr inbounds nuw %struct.mtree_writer, ptr %102, i32 0, i32 13
  %104 = load i32, ptr %103, align 8, !tbaa !124
  %105 = and i32 %104, 16777216
  %106 = icmp ne i32 %105, 0
  br i1 %106, label %107, label %114

107:                                              ; preds = %101
  %108 = load ptr, ptr getelementptr inbounds nuw (%struct.archive_digest, ptr @__archive_digest, i32 0, i32 13), align 8, !tbaa !192
  %109 = load ptr, ptr %4, align 8, !tbaa !23
  %110 = getelementptr inbounds nuw %struct.mtree_writer, ptr %109, i32 0, i32 20
  %111 = load ptr, ptr %5, align 8, !tbaa !68
  %112 = load i64, ptr %6, align 8, !tbaa !69
  %113 = call i32 %108(ptr noundef %110, ptr noundef %111, i64 noundef %112)
  br label %114

114:                                              ; preds = %107, %101
  %115 = load ptr, ptr %4, align 8, !tbaa !23
  %116 = getelementptr inbounds nuw %struct.mtree_writer, ptr %115, i32 0, i32 13
  %117 = load i32, ptr %116, align 8, !tbaa !124
  %118 = and i32 %117, 33554432
  %119 = icmp ne i32 %118, 0
  br i1 %119, label %120, label %127

120:                                              ; preds = %114
  %121 = load ptr, ptr getelementptr inbounds nuw (%struct.archive_digest, ptr @__archive_digest, i32 0, i32 16), align 8, !tbaa !193
  %122 = load ptr, ptr %4, align 8, !tbaa !23
  %123 = getelementptr inbounds nuw %struct.mtree_writer, ptr %122, i32 0, i32 21
  %124 = load ptr, ptr %5, align 8, !tbaa !68
  %125 = load i64, ptr %6, align 8, !tbaa !69
  %126 = call i32 %121(ptr noundef %123, ptr noundef %124, i64 noundef %125)
  br label %127

127:                                              ; preds = %120, %114
  ret void
}

; Function Attrs: nounwind uwtable
define internal i64 @archive_write_mtree_data(ptr noundef %0, ptr noundef %1, i64 noundef %2) #0 {
  %4 = alloca i64, align 8
  %5 = alloca ptr, align 8
  %6 = alloca ptr, align 8
  %7 = alloca i64, align 8
  %8 = alloca ptr, align 8
  %9 = alloca i32, align 4
  store ptr %0, ptr %5, align 8, !tbaa !11
  store ptr %1, ptr %6, align 8, !tbaa !68
  store i64 %2, ptr %7, align 8, !tbaa !69
  call void @llvm.lifetime.start.p0(i64 8, ptr %8) #9
  %10 = load ptr, ptr %5, align 8, !tbaa !11
  %11 = getelementptr inbounds nuw %struct.archive_write, ptr %10, i32 0, i32 15
  %12 = load ptr, ptr %11, align 8, !tbaa !44
  store ptr %12, ptr %8, align 8, !tbaa !23
  %13 = load i64, ptr %7, align 8, !tbaa !69
  %14 = load ptr, ptr %8, align 8, !tbaa !23
  %15 = getelementptr inbounds nuw %struct.mtree_writer, ptr %14, i32 0, i32 8
  %16 = load i64, ptr %15, align 8, !tbaa !60
  %17 = icmp ugt i64 %13, %16
  br i1 %17, label %18, label %22

18:                                               ; preds = %3
  %19 = load ptr, ptr %8, align 8, !tbaa !23
  %20 = getelementptr inbounds nuw %struct.mtree_writer, ptr %19, i32 0, i32 8
  %21 = load i64, ptr %20, align 8, !tbaa !60
  store i64 %21, ptr %7, align 8, !tbaa !69
  br label %22

22:                                               ; preds = %18, %3
  %23 = load i64, ptr %7, align 8, !tbaa !69
  %24 = load ptr, ptr %8, align 8, !tbaa !23
  %25 = getelementptr inbounds nuw %struct.mtree_writer, ptr %24, i32 0, i32 8
  %26 = load i64, ptr %25, align 8, !tbaa !60
  %27 = sub i64 %26, %23
  store i64 %27, ptr %25, align 8, !tbaa !60
  %28 = load ptr, ptr %8, align 8, !tbaa !23
  %29 = getelementptr inbounds nuw %struct.mtree_writer, ptr %28, i32 0, i32 0
  %30 = load ptr, ptr %29, align 8, !tbaa !25
  %31 = icmp eq ptr %30, null
  br i1 %31, label %32, label %34

32:                                               ; preds = %22
  %33 = load i64, ptr %7, align 8, !tbaa !69
  store i64 %33, ptr %4, align 8
  store i32 1, ptr %9, align 4
  br label %47

34:                                               ; preds = %22
  %35 = load ptr, ptr %8, align 8, !tbaa !23
  %36 = getelementptr inbounds nuw %struct.mtree_writer, ptr %35, i32 0, i32 0
  %37 = load ptr, ptr %36, align 8, !tbaa !25
  %38 = getelementptr inbounds nuw %struct.mtree_entry, ptr %37, i32 0, i32 13
  %39 = load i32, ptr %38, align 4, !tbaa !70
  %40 = icmp eq i32 %39, 32768
  br i1 %40, label %41, label %45

41:                                               ; preds = %34
  %42 = load ptr, ptr %8, align 8, !tbaa !23
  %43 = load ptr, ptr %6, align 8, !tbaa !68
  %44 = load i64, ptr %7, align 8, !tbaa !69
  call void @sum_update(ptr noundef %42, ptr noundef %43, i64 noundef %44)
  br label %45

45:                                               ; preds = %41, %34
  %46 = load i64, ptr %7, align 8, !tbaa !69
  store i64 %46, ptr %4, align 8
  store i32 1, ptr %9, align 4
  br label %47

47:                                               ; preds = %45, %32
  call void @llvm.lifetime.end.p0(i64 8, ptr %8) #9
  %48 = load i64, ptr %4, align 8
  ret i64 %48
}