; Function Attrs: nounwind uwtable
define internal i64 @archive_write_mtree_data(ptr noundef readonly captures(none) %0, ptr noundef %1, i64 noundef %2) #0 {
  %4 = getelementptr inbounds nuw i8, ptr %0, i64 248
  %5 = load ptr, ptr %4, align 8, !tbaa !28
  %6 = getelementptr inbounds nuw i8, ptr %5, i64 120
  %7 = load i64, ptr %6, align 8, !tbaa !56
  %spec.select = tail call i64 @llvm.umin.i64(i64 %2, i64 %7)
  %8 = sub i64 %7, %spec.select
  store i64 %8, ptr %6, align 8, !tbaa !56
  %9 = load ptr, ptr %5, align 8, !tbaa !95
  %10 = icmp eq ptr %9, null
  br i1 %10, label %sum_update.exit, label %11

11:                                               ; preds = %3
  %12 = getelementptr inbounds nuw i8, ptr %9, i64 228
  %13 = load i32, ptr %12, align 4, !tbaa !82
  %14 = icmp eq i32 %13, 32768
  br i1 %14, label %15, label %sum_update.exit

15:                                               ; preds = %11
  %16 = getelementptr inbounds nuw i8, ptr %5, i64 224
  %17 = load i32, ptr %16, align 8, !tbaa !96
  %18 = and i32 %17, 1
  %.not.i = icmp eq i32 %18, 0
  br i1 %.not.i, label %36, label %.preheader.i

.preheader.i:                                     ; preds = %15
  %.not3542.i = icmp eq i64 %spec.select, 0
  br i1 %.not3542.i, label %._crit_edge.i, label %.lr.ph.i

.lr.ph.i:                                         ; preds = %.preheader.i
  %19 = getelementptr inbounds nuw i8, ptr %5, i64 228
  %.promoted.i = load i32, ptr %19, align 4, !tbaa !97
  br label %20

20:                                               ; preds = %20, %.lr.ph.i
  %21 = phi i32 [ %.promoted.i, %.lr.ph.i ], [ %31, %20 ]
  %.044.i = phi i64 [ %spec.select, %.lr.ph.i ], [ %22, %20 ]
  %.03443.i = phi ptr [ %1, %.lr.ph.i ], [ %32, %20 ]
  %22 = add i64 %.044.i, -1
  %23 = shl i32 %21, 8
  %24 = lshr i32 %21, 24
  %25 = load i8, ptr %.03443.i, align 1, !tbaa !53
  %26 = zext i8 %25 to i32
  %27 = xor i32 %24, %26
  %28 = zext nneg i32 %27 to i64
  %29 = getelementptr inbounds nuw [256 x i32], ptr @crctab, i64 0, i64 %28
  %30 = load i32, ptr %29, align 4, !tbaa !128
  %31 = xor i32 %30, %23
  store i32 %31, ptr %19, align 4, !tbaa !97
  %32 = getelementptr inbounds nuw i8, ptr %.03443.i, i64 1
  %.not35.i = icmp eq i64 %22, 0
  br i1 %.not35.i, label %._crit_edge.i, label %20, !llvm.loop !129

._crit_edge.i:                                    ; preds = %20, %.preheader.i
  %33 = getelementptr inbounds nuw i8, ptr %5, i64 232
  %34 = load i64, ptr %33, align 8, !tbaa !98
  %35 = add i64 %34, %spec.select
  store i64 %35, ptr %33, align 8, !tbaa !98
  br label %36

36:                                               ; preds = %._crit_edge.i, %15
  %37 = and i32 %17, 256
  %.not36.i = icmp eq i32 %37, 0
  br i1 %.not36.i, label %42, label %38

38:                                               ; preds = %36
  %39 = load ptr, ptr getelementptr inbounds nuw (i8, ptr @__archive_digest, i64 8), align 8, !tbaa !130
  %40 = getelementptr inbounds nuw i8, ptr %5, i64 240
  %41 = tail call i32 %39(ptr noundef nonnull %40, ptr noundef %1, i64 noundef %spec.select) #14
  %.pre.i = load i32, ptr %16, align 8, !tbaa !96
  br label %42

42:                                               ; preds = %38, %36
  %43 = phi i32 [ %.pre.i, %38 ], [ %17, %36 ]
  %44 = and i32 %43, 8192
  %.not37.i = icmp eq i32 %44, 0
  br i1 %.not37.i, label %49, label %45

45:                                               ; preds = %42
  %46 = load ptr, ptr getelementptr inbounds nuw (i8, ptr @__archive_digest, i64 32), align 8, !tbaa !131
  %47 = getelementptr inbounds nuw i8, ptr %5, i64 248
  %48 = tail call i32 %46(ptr noundef nonnull %47, ptr noundef %1, i64 noundef %spec.select) #14
  %.pre45.i = load i32, ptr %16, align 8, !tbaa !96
  br label %49

49:                                               ; preds = %45, %42
  %50 = phi i32 [ %.pre45.i, %45 ], [ %43, %42 ]
  %51 = and i32 %50, 16384
  %.not38.i = icmp eq i32 %51, 0
  br i1 %.not38.i, label %56, label %52

52:                                               ; preds = %49
  %53 = load ptr, ptr getelementptr inbounds nuw (i8, ptr @__archive_digest, i64 56), align 8, !tbaa !132
  %54 = getelementptr inbounds nuw i8, ptr %5, i64 256
  %55 = tail call i32 %53(ptr noundef nonnull %54, ptr noundef %1, i64 noundef %spec.select) #14
  %.pre46.i = load i32, ptr %16, align 8, !tbaa !96
  br label %56

56:                                               ; preds = %52, %49
  %57 = phi i32 [ %.pre46.i, %52 ], [ %50, %49 ]
  %58 = and i32 %57, 8388608
  %.not39.i = icmp eq i32 %58, 0
  br i1 %.not39.i, label %63, label %59

59:                                               ; preds = %56
  %60 = load ptr, ptr getelementptr inbounds nuw (i8, ptr @__archive_digest, i64 80), align 8, !tbaa !133
  %61 = getelementptr inbounds nuw i8, ptr %5, i64 264
  %62 = tail call i32 %60(ptr noundef nonnull %61, ptr noundef %1, i64 noundef %spec.select) #14
  %.pre47.i = load i32, ptr %16, align 8, !tbaa !96
  br label %63

63:                                               ; preds = %59, %56
  %64 = phi i32 [ %.pre47.i, %59 ], [ %57, %56 ]
  %65 = and i32 %64, 16777216
  %.not40.i = icmp eq i32 %65, 0
  br i1 %.not40.i, label %70, label %66

66:                                               ; preds = %63
  %67 = load ptr, ptr getelementptr inbounds nuw (i8, ptr @__archive_digest, i64 104), align 8, !tbaa !134
  %68 = getelementptr inbounds nuw i8, ptr %5, i64 272
  %69 = tail call i32 %67(ptr noundef nonnull %68, ptr noundef %1, i64 noundef %spec.select) #14
  %.pre48.i = load i32, ptr %16, align 8, !tbaa !96
  br label %70

70:                                               ; preds = %66, %63
  %71 = phi i32 [ %.pre48.i, %66 ], [ %64, %63 ]
  %72 = and i32 %71, 33554432
  %.not41.i = icmp eq i32 %72, 0
  br i1 %.not41.i, label %sum_update.exit, label %73

73:                                               ; preds = %70
  %74 = load ptr, ptr getelementptr inbounds nuw (i8, ptr @__archive_digest, i64 128), align 8, !tbaa !135
  %75 = getelementptr inbounds nuw i8, ptr %5, i64 280
  %76 = tail call i32 %74(ptr noundef nonnull %75, ptr noundef %1, i64 noundef %spec.select) #14
  br label %sum_update.exit

sum_update.exit:                                  ; preds = %73, %70, %11, %3
  ret i64 %spec.select
}